target datalayout = "e-m:e-p270:32:32-p271:32:32-p272:64:64-i64:64-i128:128-f80:128-n8:16:32:64-S128"
target triple = "x86_64-pc-linux-gnu"

%class.GURL = type { %"class.std::__cxx11::basic_string", i8, %"struct.url::Parsed", %"class.std::unique_ptr" }
%"class.std::__cxx11::basic_string" = type { %"struct.std::__cxx11::basic_string<char>::_Alloc_hider", i64, %union.anon }
%"struct.std::__cxx11::basic_string<char>::_Alloc_hider" = type { ptr }
%union.anon = type { i64, [8 x i8] }
%"struct.url::Parsed" = type { %"struct.url::Component", %"struct.url::Component", %"struct.url::Component", %"struct.url::Component", %"struct.url::Component", %"struct.url::Component", %"struct.url::Component", %"struct.url::Component", ptr }
%"struct.url::Component" = type { i32, i32 }
%"class.std::unique_ptr" = type { %"struct.std::__uniq_ptr_data" }
%"struct.std::__uniq_ptr_data" = type { %"class.std::__uniq_ptr_impl" }
%"class.std::__uniq_ptr_impl" = type { %"class.std::tuple" }
%"class.std::tuple" = type { %"struct.std::_Tuple_impl" }
%"struct.std::_Tuple_impl" = type { %"struct.std::_Head_base.1" }
%"struct.std::_Head_base.1" = type { ptr }

@_ZN12_GLOBAL__N_117empty_string_onceE = internal global i32 0, align 4
@_ZN12_GLOBAL__N_112empty_stringB5cxx11E = internal global ptr null, align 8

; Function Attrs: mustprogress nounwind uwtable
define available_externally noundef i64 @_ZNKSt7__cxx1112basic_stringIcSt11char_traitsIcESaIcEE4sizeEv(ptr noundef nonnull align 8 dereferenceable(32) %0) #1 align 2 {
  %2 = alloca ptr, align 8
  store ptr %0, ptr %2, align 8, !tbaa !25
  %3 = load ptr, ptr %2, align 8
  %4 = getelementptr inbounds nuw %"class.std::__cxx11::basic_string", ptr %3, i32 0, i32 1
  %5 = load i64, ptr %4, align 8, !tbaa !52
  ret i64 %5
}

; Function Attrs: mustprogress uwtable
define internal noundef nonnull align 8 dereferenceable(32) ptr @_ZN12_GLOBAL__N_118EmptyStringForGURLB5cxx11Ev() #0 {
  %1 = call i32 @pthread_once(ptr noundef @_ZN12_GLOBAL__N_117empty_string_onceE, ptr noundef @_ZN12_GLOBAL__N_122EmptyStringForGURLOnceEv)
  %2 = load ptr, ptr @_ZN12_GLOBAL__N_112empty_stringB5cxx11E, align 8, !tbaa !25
  ret ptr %2
}

; Function Attrs: mustprogress nounwind uwtable
define available_externally noundef zeroext i1 @_ZNKSt7__cxx1112basic_stringIcSt11char_traitsIcESaIcEE5emptyEv(ptr noundef nonnull align 8 dereferenceable(32) %0) #1 align 2 {
  %2 = alloca ptr, align 8
  store ptr %0, ptr %2, align 8, !tbaa !25
  %3 = load ptr, ptr %2, align 8
  %4 = call noundef i64 @_ZNKSt7__cxx1112basic_stringIcSt11char_traitsIcESaIcEE4sizeEv(ptr noundef nonnull align 8 dereferenceable(32) %3) #15
  %5 = icmp eq i64 %4, 0
  ret i1 %5
}

; Function Attrs: mustprogress uwtable
define noundef nonnull align 8 dereferenceable(32) ptr @_ZNK4GURL4specB5cxx11Ev(ptr noundef nonnull align 8 dereferenceable(120) %0) #0 align 2 {
  %2 = alloca ptr, align 8
  %3 = alloca ptr, align 8
  store ptr %0, ptr %3, align 8, !tbaa !3
  %4 = load ptr, ptr %3, align 8
  %5 = getelementptr inbounds nuw %class.GURL, ptr %4, i32 0, i32 1
  %6 = load i8, ptr %5, align 8, !tbaa !8, !range !29, !noundef !30
  %7 = trunc i8 %6 to i1
  br i1 %7, label %11, label %8

8:                                                ; preds = %1
  %9 = getelementptr inbounds nuw %class.GURL, ptr %4, i32 0, i32 0
  %10 = call noundef zeroext i1 @_ZNKSt7__cxx1112basic_stringIcSt11char_traitsIcESaIcEE5emptyEv(ptr noundef nonnull align 8 dereferenceable(32) %9) #15
  br i1 %10, label %11, label %13

11:                                               ; preds = %8, %1
  %12 = getelementptr inbounds nuw %class.GURL, ptr %4, i32 0, i32 0
  store ptr %12, ptr %2, align 8
  br label %15

13:                                               ; preds = %8
  %14 = call noundef nonnull align 8 dereferenceable(32) ptr @_ZN12_GLOBAL__N_118EmptyStringForGURLB5cxx11Ev()
  store ptr %14, ptr %2, align 8
  br label %15

15:                                               ; preds = %13, %11
  %16 = load ptr, ptr %2, align 8
  ret ptr %16
}