; Function Attrs: mustprogress uwtable
define noundef nonnull align 8 dereferenceable(32) ptr @_ZNK4GURL4specB5cxx11Ev(ptr noundef nonnull readonly align 8 captures(ret: address, provenance) dereferenceable(120) %0) local_unnamed_addr #0 align 2 {
  %2 = getelementptr inbounds nuw i8, ptr %0, i64 32
  %3 = load i8, ptr %2, align 8, !tbaa !13, !range !30, !noundef !31
  %4 = trunc nuw i8 %3 to i1
  %5 = getelementptr inbounds nuw i8, ptr %0, i64 8
  %6 = load i64, ptr %5, align 8
  %7 = icmp eq i64 %6, 0
  %or.cond = select i1 %4, i1 true, i1 %7
  br i1 %or.cond, label %11, label %8

8:                                                ; preds = %1
  %9 = tail call i32 @pthread_once(ptr noundef nonnull @_ZN12_GLOBAL__N_117empty_string_onceE, ptr noundef nonnull @_ZN12_GLOBAL__N_122EmptyStringForGURLOnceEv)
  %10 = load ptr, ptr @_ZN12_GLOBAL__N_112empty_stringB5cxx11E, align 8, !tbaa !36
  br label %11

11:                                               ; preds = %1, %8
  %.0 = phi ptr [ %10, %8 ], [ %0, %1 ]
  ret ptr %.0
}